target datalayout = "e-m:e-p270:32:32-p271:32:32-p272:64:64-i64:64-i128:128-f80:128-n8:16:32:64-S128"
target triple = "x86_64-pc-linux-gnu"

@.str.4 = private unnamed_addr constant [13 x i8] c"fwrite error\00", align 1

; Function Attrs: nounwind uwtable
define dso_local void @fwrite_or_die(ptr noundef %0, ptr noundef %1, i64 noundef %2) #0 {
  %4 = alloca ptr, align 8
  %5 = alloca ptr, align 8
  %6 = alloca i64, align 8
  store ptr %0, ptr %4, align 8, !tbaa !4
  store ptr %1, ptr %5, align 8, !tbaa !17
  store i64 %2, ptr %6, align 8, !tbaa !18
  %7 = load ptr, ptr %5, align 8, !tbaa !17
  %8 = load i64, ptr %6, align 8, !tbaa !18
  %9 = load ptr, ptr %4, align 8, !tbaa !4
  %10 = call i64 @fwrite(ptr noundef %7, i64 noundef 1, i64 noundef %8, ptr noundef %9)
  %11 = load i64, ptr %6, align 8, !tbaa !18
  %12 = icmp ne i64 %10, %11
  br i1 %12, label %13, label %14

13:                                               ; preds = %3
  call void (ptr, ...) @die_errno(ptr noundef @.str.4) #9
  unreachable

14:                                               ; preds = %3
  ret void
}