; Function Attrs: nounwind uwtable
define dso_local void @fwrite_or_die(ptr noundef captures(none) %0, ptr noundef captures(none) %1, i64 noundef %2) local_unnamed_addr #0 {
  %4 = tail call i64 @fwrite(ptr noundef %1, i64 noundef 1, i64 noundef %2, ptr noundef %0)
  %.not = icmp eq i64 %4, %2
  br i1 %.not, label %6, label %5

5:                                                ; preds = %3
  tail call void (ptr, ...) @die_errno(ptr noundef nonnull @.str.4) #10
  unreachable

6:                                                ; preds = %3
  ret void
}